
Memory Configuration

Name             Origin             Length             Attributes
FLASH            0x0000000008000000 0x0000000000100000 xr
SRAM             0x0000000020000000 0x0000000000050000 xrw
*default*        0x0000000000000000 0xffffffffffffffff

Linker script and memory map

LOAD main.o
LOAD st_startup.o
                0x0000000000000400                __max_heap_size = 0x400
                0x0000000000000200                __max_stack_size = 0x200

.text           0x0000000008000000      0x2a8
 *(.isr_vector)
 .isr_vector    0x0000000008000000      0x1ac st_startup.o
                0x0000000008000000                vectors
 *(.text)
 .text          0x00000000080001ac       0x70 main.o
                0x00000000080001ac                delay
                0x00000000080001cc                main
 .text          0x000000000800021c       0x88 st_startup.o
                0x000000000800021c                Reset_Handler
                0x000000000800029c                EXTI2_IRQHandler
                0x000000000800029c                TIM8_TRG_COM_IRQHandler
                0x000000000800029c                TIM8_CC_IRQHandler
                0x000000000800029c                SVCall_Handler
                0x000000000800029c                DebugMon_Handler
                0x000000000800029c                DMA1_CH4_IRQHandler
                0x000000000800029c                TIM1_CC_IRQHandler
                0x000000000800029c                TSC_IRQHandler
                0x000000000800029c                HardFault_Handler
                0x000000000800029c                SysTick_Handler
                0x000000000800029c                TAMP_STAMP_IRQHandler
                0x000000000800029c                PendSV_Handler
                0x000000000800029c                NMI_Handler
                0x000000000800029c                CAN2_RX1_IRQHandler
                0x000000000800029c                EXTI3_IRQHandler
                0x000000000800029c                LPTIM2_IRQHandler
                0x000000000800029c                DFSDM1_FLT1_IRQHandler
                0x000000000800029c                I2C3_ER_IRQHandler
                0x000000000800029c                DFSDM1_FLT2_IRQHandler
                0x000000000800029c                TIM6_DACUNDER_IRQHandler
                0x000000000800029c                EXTI0_IRQHandler
                0x000000000800029c                I2C2_EV_IRQHandler
                0x000000000800029c                DMA2_CH1_IRQHandler
                0x000000000800029c                CAN1_RX0_IRQHandler
                0x000000000800029c                FPU_IRQHandler
                0x000000000800029c                TIM1_UP_TIM16_IRQHandler
                0x000000000800029c                DMA2_CH7_IRQHandler
                0x000000000800029c                UsageFault_Handler
                0x000000000800029c                CAN2_SCE_IRQHandler
                0x000000000800029c                ADC1_2_IRQHandler
                0x000000000800029c                SPI1_IRQHandler
                0x000000000800029c                USART5_IRQHandler
                0x000000000800029c                DMA1_CH7_IRQHandler
                0x000000000800029c                DCMI_IRQHandler
                0x000000000800029c                CAN2_RX0_IRQHandler
                0x000000000800029c                TIM8_UP_IRQHandler
                0x000000000800029c                RTC_ALARM_IRQHandler
                0x000000000800029c                SAI2_IRQHandler
                0x000000000800029c                DFSDM1_FLT3_IRQHandler
                0x000000000800029c                DMA1_CH6_IRQHandler
                0x000000000800029c                USART3_IRQHandler
                0x000000000800029c                CAN1_RX1_IRQHandler
                0x000000000800029c                LCD_IRQHandler
                0x000000000800029c                ADC3_IRQHandler
                0x000000000800029c                TIM4_IRQHandler
                0x000000000800029c                QUADSPI_IRQHandler
                0x000000000800029c                I2C1_EV_IRQHandler
                0x000000000800029c                DMA2_CH5_IRQHandler
                0x000000000800029c                USART4_IRQHandler
                0x000000000800029c                DMA1_CH3_IRQHandler
                0x000000000800029c                TIM3_IRQHandler
                0x000000000800029c                RCC_IRQHandler
                0x000000000800029c                Default_Handler
                0x000000000800029c                EXTI15_10_IRQHandler
                0x000000000800029c                TIM7_IRQHandler
                0x000000000800029c                SDMMC1_IRQHandler
                0x000000000800029c                CAN2_TX_IRQHandler
                0x000000000800029c                TIM5_IRQHandler
                0x000000000800029c                I2C3_EV_IRQHandler
                0x000000000800029c                EXTI9_5_IRQHandler
                0x000000000800029c                DMA1_CH2_IRQHandler
                0x000000000800029c                RTC_WKUP_IRQHandler
                0x000000000800029c                PVD_PVM_IRQHandler
                0x000000000800029c                SPI2_IRQHandler
                0x000000000800029c                DMA1_CH1_IRQHandler
                0x000000000800029c                MemManage_Handler
                0x000000000800029c                CAN1_TX_IRQHandler
                0x000000000800029c                CRS_IRQHandler
                0x000000000800029c                EXTI4_IRQHandler
                0x000000000800029c                RNG_IRQHandler
                0x000000000800029c                TIM1_TRG_COM_TIM17_IRQHandler
                0x000000000800029c                COMP_IRQHandler
                0x000000000800029c                WWDG_IRQHandler
                0x000000000800029c                I2C4_EV_IRQHandler
                0x000000000800029c                LPUART1_IRQHandler
                0x000000000800029c                TIM2_IRQHandler
                0x000000000800029c                DMA2D_IRQHandler
                0x000000000800029c                EXTI1_IRQHandler
                0x000000000800029c                AES_IRQHandler
                0x000000000800029c                USART2_IRQHandler
                0x000000000800029c                DFSDM1_FLT0_IRQHandler
                0x000000000800029c                I2C2_ER_IRQHandler
                0x000000000800029c                TIM8_BRK_IRQHandler
                0x000000000800029c                CAN1_SCE_IRQHandler
                0x000000000800029c                FLASH_IRQHandler
                0x000000000800029c                BusFault_Handler
                0x000000000800029c                USART1_IRQHandler
                0x000000000800029c                OTG_FS_IRQHandler
                0x000000000800029c                SPI3_IRQHandler
                0x000000000800029c                DMA2_CH6_IRQHandler
                0x000000000800029c                DMA2_CH3_IRQHandler
                0x000000000800029c                DMA2_CH2_IRQHandler
                0x000000000800029c                I2C1_ER_IRQHandler
                0x000000000800029c                FMC_IRQHandler
                0x000000000800029c                DMA1_CH5_IRQHandler
                0x000000000800029c                DMA2_CH4_IRQHandler
                0x000000000800029c                SWPMI1_IRQHandler
                0x000000000800029c                LPTIM1_IRQHandler
                0x000000000800029c                I2C4_ER_IRQHandler
                0x000000000800029c                SAI1_IRQHandler
                0x000000000800029c                TIM1_BRK_TIM15_IRQHandler
 *(.rodata)
                0x00000000080002a8                . = ALIGN (0x8)
 *fill*         0x00000000080002a4        0x4 
                0x00000000080002a8                _etext = .

.glue_7         0x00000000080002a8        0x0
 .glue_7        0x00000000080002a8        0x0 linker stubs

.glue_7t        0x00000000080002a8        0x0
 .glue_7t       0x00000000080002a8        0x0 linker stubs

.vfp11_veneer   0x00000000080002a8        0x0
 .vfp11_veneer  0x00000000080002a8        0x0 linker stubs

.v4_bx          0x00000000080002a8        0x0
 .v4_bx         0x00000000080002a8        0x0 linker stubs

.iplt           0x00000000080002a8        0x0
 .iplt          0x00000000080002a8        0x0 main.o

.rel.dyn        0x00000000080002a8        0x0
 .rel.iplt      0x00000000080002a8        0x0 main.o

.data           0x0000000020000000        0x0 load address 0x00000000080002a8
                0x0000000020000000                _sdata = .
 *(.data)
 .data          0x0000000020000000        0x0 main.o
 .data          0x0000000020000000        0x0 st_startup.o
                0x0000000020000000                . = ALIGN (0x8)
                0x0000000020000000                _edata = .

.igot.plt       0x0000000020000000        0x0 load address 0x00000000080002a8
 .igot.plt      0x0000000020000000        0x0 main.o

.bss            0x0000000020000000        0x0 load address 0x00000000080002a8
                0x0000000020000000                _sbss = .
 *(.bss)
 .bss           0x0000000020000000        0x0 main.o
 .bss           0x0000000020000000        0x0 st_startup.o
 *(COMMON)
                0x0000000020000000                . = ALIGN (0x8)
                0x0000000020000000                _ebss = .
OUTPUT(main.elf elf32-littlearm)

.comment        0x0000000000000000       0x31
 .comment       0x0000000000000000       0x31 main.o
                                         0x32 (size before relaxing)
 .comment       0x0000000000000031       0x32 st_startup.o

.ARM.attributes
                0x0000000000000000       0x33
 .ARM.attributes
                0x0000000000000000       0x33 main.o
 .ARM.attributes
                0x0000000000000033       0x33 st_startup.o
